; Function Attrs: nounwind uwtable
define dso_local void @addReplyPubsubPatUnsubscribed(ptr noundef %0, ptr noundef %1) local_unnamed_addr #2 {
  %3 = getelementptr inbounds nuw i8, ptr %0, i64 8
  %4 = load i64, ptr %3, align 8, !tbaa !31
  %5 = or i64 %4, 70368744177664
  store i64 %5, ptr %3, align 8, !tbaa !31
  %6 = getelementptr inbounds nuw i8, ptr %0, i64 28
  %7 = load i32, ptr %6, align 4, !tbaa !32
  %8 = icmp eq i32 %7, 2
  br i1 %8, label %9, label %11

9:                                                ; preds = %2
  %10 = load ptr, ptr getelementptr inbounds nuw (i8, ptr @shared, i64 80904), align 8, !tbaa !33
  tail call void @addReply(ptr noundef nonnull %0, ptr noundef %10) #9
  br label %12

11:                                               ; preds = %2
  tail call void @addReplyPushLen(ptr noundef nonnull %0, i64 noundef 3) #9
  br label %12

12:                                               ; preds = %11, %9
  %13 = load ptr, ptr getelementptr inbounds nuw (i8, ptr @shared, i64 392), align 8, !tbaa !42
  tail call void @addReply(ptr noundef nonnull %0, ptr noundef %13) #9
  %.not = icmp eq ptr %1, null
  br i1 %.not, label %15, label %14

14:                                               ; preds = %12
  tail call void @addReplyBulk(ptr noundef nonnull %0, ptr noundef nonnull %1) #9
  br label %16

15:                                               ; preds = %12
  tail call void @addReplyNull(ptr noundef nonnull %0) #9
  br label %16

16:                                               ; preds = %15, %14
  %17 = getelementptr inbounds nuw i8, ptr %0, i64 568
  %18 = load ptr, ptr %17, align 8, !tbaa !5
  %19 = getelementptr inbounds nuw i8, ptr %18, i64 24
  %20 = load i64, ptr %19, align 8, !tbaa !28
  %21 = getelementptr inbounds nuw i8, ptr %18, i64 32
  %22 = load i64, ptr %21, align 8, !tbaa !28
  %23 = getelementptr inbounds nuw i8, ptr %0, i64 576
  %24 = load ptr, ptr %23, align 8, !tbaa !29
  %25 = getelementptr inbounds nuw i8, ptr %24, i64 24
  %26 = load i64, ptr %25, align 8, !tbaa !28
  %27 = getelementptr inbounds nuw i8, ptr %24, i64 32
  %28 = load i64, ptr %27, align 8, !tbaa !28
  %29 = add i64 %22, %20
  %30 = add i64 %29, %26
  %31 = add i64 %30, %28
  %sext = shl i64 %31, 32
  %32 = ashr exact i64 %sext, 32
  tail call void @addReplyLongLong(ptr noundef nonnull %0, i64 noundef %32) #9
  %33 = and i64 %4, 70368744177664
  %.not13 = icmp eq i64 %33, 0
  br i1 %.not13, label %34, label %37

34:                                               ; preds = %16
  %35 = load i64, ptr %3, align 8, !tbaa !31
  %36 = and i64 %35, -70368744177665
  store i64 %36, ptr %3, align 8, !tbaa !31
  br label %37

37:                                               ; preds = %34, %16
  ret void
}